target datalayout = "e-m:e-p270:32:32-p271:32:32-p272:64:64-i64:64-i128:128-f80:128-n8:16:32:64-S128"
target triple = "x86_64-pc-linux-gnu"

%union.av_intfloat32 = type { i32 }
%struct.Half2FloatTables = type { [3072 x i32], [64 x i32], [64 x i16] }

; Function Attrs: alwaysinline nounwind willreturn memory(none) uwtable
define internal float @av_clipf_c(float noundef %0, float noundef %1, float noundef %2) #4 {
  %4 = alloca float, align 4
  %5 = alloca float, align 4
  %6 = alloca float, align 4
  store float %0, ptr %4, align 4, !tbaa !135
  store float %1, ptr %5, align 4, !tbaa !135
  store float %2, ptr %6, align 4, !tbaa !135
  %7 = load float, ptr %4, align 4, !tbaa !135
  %8 = load float, ptr %5, align 4, !tbaa !135
  %9 = fcmp nsz ogt float %7, %8
  br i1 %9, label %10, label %12

10:                                               ; preds = %3
  %11 = load float, ptr %4, align 4, !tbaa !135
  br label %14

12:                                               ; preds = %3
  %13 = load float, ptr %5, align 4, !tbaa !135
  br label %14

14:                                               ; preds = %12, %10
  %15 = phi nsz float [ %11, %10 ], [ %13, %12 ]
  %16 = load float, ptr %6, align 4, !tbaa !135
  %17 = fcmp nsz ogt float %15, %16
  br i1 %17, label %18, label %20

18:                                               ; preds = %14
  %19 = load float, ptr %6, align 4, !tbaa !135
  br label %30

20:                                               ; preds = %14
  %21 = load float, ptr %4, align 4, !tbaa !135
  %22 = load float, ptr %5, align 4, !tbaa !135
  %23 = fcmp nsz ogt float %21, %22
  br i1 %23, label %24, label %26

24:                                               ; preds = %20
  %25 = load float, ptr %4, align 4, !tbaa !135
  br label %28

26:                                               ; preds = %20
  %27 = load float, ptr %5, align 4, !tbaa !135
  br label %28

28:                                               ; preds = %26, %24
  %29 = phi nsz float [ %25, %24 ], [ %27, %26 ]
  br label %30

30:                                               ; preds = %28, %18
  %31 = phi nsz float [ %19, %18 ], [ %29, %28 ]
  ret float %31
}

; Function Attrs: alwaysinline nounwind uwtable
define internal float @av_int2float(i32 noundef %0) #3 {
  %2 = alloca i32, align 4
  %3 = alloca %union.av_intfloat32, align 4
  store i32 %0, ptr %2, align 4, !tbaa !30
  call void @llvm.lifetime.start.p0(i64 4, ptr %3) #9
  %4 = load i32, ptr %2, align 4, !tbaa !30
  store i32 %4, ptr %3, align 4, !tbaa !36
  %5 = load float, ptr %3, align 4, !tbaa !36
  call void @llvm.lifetime.end.p0(i64 4, ptr %3) #9
  ret float %5
}

; Function Attrs: inlinehint nounwind uwtable
define internal i32 @half2float(i16 noundef zeroext %0, ptr noundef %1) #6 {
  %3 = alloca i16, align 2
  %4 = alloca ptr, align 8
  %5 = alloca i32, align 4
  store i16 %0, ptr %3, align 2, !tbaa !44
  store ptr %1, ptr %4, align 8, !tbaa !137
  call void @llvm.lifetime.start.p0(i64 4, ptr %5) #9
  %6 = load ptr, ptr %4, align 8, !tbaa !137
  %7 = getelementptr inbounds nuw %struct.Half2FloatTables, ptr %6, i32 0, i32 0
  %8 = load ptr, ptr %4, align 8, !tbaa !137
  %9 = getelementptr inbounds nuw %struct.Half2FloatTables, ptr %8, i32 0, i32 2
  %10 = load i16, ptr %3, align 2, !tbaa !44
  %11 = zext i16 %10 to i32
  %12 = ashr i32 %11, 10
  %13 = sext i32 %12 to i64
  %14 = getelementptr inbounds [64 x i16], ptr %9, i64 0, i64 %13
  %15 = load i16, ptr %14, align 2, !tbaa !44
  %16 = zext i16 %15 to i32
  %17 = load i16, ptr %3, align 2, !tbaa !44
  %18 = zext i16 %17 to i32
  %19 = and i32 %18, 1023
  %20 = add nsw i32 %16, %19
  %21 = sext i32 %20 to i64
  %22 = getelementptr inbounds [3072 x i32], ptr %7, i64 0, i64 %21
  %23 = load i32, ptr %22, align 4, !tbaa !30
  %24 = load ptr, ptr %4, align 8, !tbaa !137
  %25 = getelementptr inbounds nuw %struct.Half2FloatTables, ptr %24, i32 0, i32 1
  %26 = load i16, ptr %3, align 2, !tbaa !44
  %27 = zext i16 %26 to i32
  %28 = ashr i32 %27, 10
  %29 = sext i32 %28 to i64
  %30 = getelementptr inbounds [64 x i32], ptr %25, i64 0, i64 %29
  %31 = load i32, ptr %30, align 4, !tbaa !30
  %32 = add i32 %23, %31
  store i32 %32, ptr %5, align 4, !tbaa !30
  %33 = load i32, ptr %5, align 4, !tbaa !30
  call void @llvm.lifetime.end.p0(i64 4, ptr %5) #9
  ret i32 %33
}

; Function Attrs: alwaysinline nounwind willreturn memory(none) uwtable
define internal zeroext i16 @av_bswap16(i16 noundef zeroext %0) #4 {
  %2 = alloca i16, align 2
  store i16 %0, ptr %2, align 2, !tbaa !44
  %3 = load i16, ptr %2, align 2, !tbaa !44
  %4 = zext i16 %3 to i32
  %5 = ashr i32 %4, 8
  %6 = load i16, ptr %2, align 2, !tbaa !44
  %7 = zext i16 %6 to i32
  %8 = shl i32 %7, 8
  %9 = or i32 %5, %8
  %10 = trunc i32 %9 to i16
  store i16 %10, ptr %2, align 2, !tbaa !44
  %11 = load i16, ptr %2, align 2, !tbaa !44
  ret i16 %11
}

; Function Attrs: alwaysinline nounwind uwtable
define internal void @rgbaf16ToUV_endian(ptr noundef %0, ptr noundef %1, i32 noundef %2, ptr noundef %3, i32 noundef %4, ptr noundef %5, ptr noundef %6) #3 {
  %8 = alloca ptr, align 8
  %9 = alloca ptr, align 8
  %10 = alloca i32, align 4
  %11 = alloca ptr, align 8
  %12 = alloca i32, align 4
  %13 = alloca ptr, align 8
  %14 = alloca ptr, align 8
  %15 = alloca i32, align 4
  %16 = alloca i32, align 4
  %17 = alloca i32, align 4
  %18 = alloca i32, align 4
  %19 = alloca i32, align 4
  %20 = alloca i32, align 4
  %21 = alloca i32, align 4
  %22 = alloca i32, align 4
  %23 = alloca i32, align 4
  %24 = alloca i32, align 4
  store ptr %0, ptr %8, align 8, !tbaa !43
  store ptr %1, ptr %9, align 8, !tbaa !43
  store i32 %2, ptr %10, align 4, !tbaa !30
  store ptr %3, ptr %11, align 8, !tbaa !43
  store i32 %4, ptr %12, align 4, !tbaa !30
  store ptr %5, ptr %13, align 8, !tbaa !35
  store ptr %6, ptr %14, align 8, !tbaa !137
  call void @llvm.lifetime.start.p0(i64 4, ptr %15) #9
  %25 = load ptr, ptr %13, align 8, !tbaa !35
  %26 = getelementptr inbounds i32, ptr %25, i64 3
  %27 = load i32, ptr %26, align 4, !tbaa !30
  store i32 %27, ptr %15, align 4, !tbaa !30
  call void @llvm.lifetime.start.p0(i64 4, ptr %16) #9
  %28 = load ptr, ptr %13, align 8, !tbaa !35
  %29 = getelementptr inbounds i32, ptr %28, i64 4
  %30 = load i32, ptr %29, align 4, !tbaa !30
  store i32 %30, ptr %16, align 4, !tbaa !30
  call void @llvm.lifetime.start.p0(i64 4, ptr %17) #9
  %31 = load ptr, ptr %13, align 8, !tbaa !35
  %32 = getelementptr inbounds i32, ptr %31, i64 5
  %33 = load i32, ptr %32, align 4, !tbaa !30
  store i32 %33, ptr %17, align 4, !tbaa !30
  call void @llvm.lifetime.start.p0(i64 4, ptr %18) #9
  %34 = load ptr, ptr %13, align 8, !tbaa !35
  %35 = getelementptr inbounds i32, ptr %34, i64 6
  %36 = load i32, ptr %35, align 4, !tbaa !30
  store i32 %36, ptr %18, align 4, !tbaa !30
  call void @llvm.lifetime.start.p0(i64 4, ptr %19) #9
  %37 = load ptr, ptr %13, align 8, !tbaa !35
  %38 = getelementptr inbounds i32, ptr %37, i64 7
  %39 = load i32, ptr %38, align 4, !tbaa !30
  store i32 %39, ptr %19, align 4, !tbaa !30
  call void @llvm.lifetime.start.p0(i64 4, ptr %20) #9
  %40 = load ptr, ptr %13, align 8, !tbaa !35
  %41 = getelementptr inbounds i32, ptr %40, i64 8
  %42 = load i32, ptr %41, align 4, !tbaa !30
  store i32 %42, ptr %20, align 4, !tbaa !30
  call void @llvm.lifetime.start.p0(i64 4, ptr %21) #9
  store i32 0, ptr %21, align 4, !tbaa !30
  br label %43

43:                                               ; preds = %177, %7
  %44 = load i32, ptr %21, align 4, !tbaa !30
  %45 = load i32, ptr %12, align 4, !tbaa !30
  %46 = icmp slt i32 %44, %45
  br i1 %46, label %47, label %180

47:                                               ; preds = %43
  call void @llvm.lifetime.start.p0(i64 4, ptr %22) #9
  %48 = load i32, ptr %10, align 4, !tbaa !30
  %49 = icmp ne i32 %48, 0
  br i1 %49, label %50, label %60

50:                                               ; preds = %47
  %51 = load ptr, ptr %11, align 8, !tbaa !43
  %52 = load i32, ptr %21, align 4, !tbaa !30
  %53 = mul nsw i32 %52, 4
  %54 = add nsw i32 %53, 0
  %55 = sext i32 %54 to i64
  %56 = getelementptr inbounds i16, ptr %51, i64 %55
  %57 = load i16, ptr %56, align 1, !tbaa !36
  %58 = call zeroext i16 @av_bswap16(i16 noundef zeroext %57) #10
  %59 = zext i16 %58 to i32
  br label %69

60:                                               ; preds = %47
  %61 = load ptr, ptr %11, align 8, !tbaa !43
  %62 = load i32, ptr %21, align 4, !tbaa !30
  %63 = mul nsw i32 %62, 4
  %64 = add nsw i32 %63, 0
  %65 = sext i32 %64 to i64
  %66 = getelementptr inbounds i16, ptr %61, i64 %65
  %67 = load i16, ptr %66, align 1, !tbaa !36
  %68 = zext i16 %67 to i32
  br label %69

69:                                               ; preds = %60, %50
  %70 = phi i32 [ %59, %50 ], [ %68, %60 ]
  %71 = trunc i32 %70 to i16
  %72 = load ptr, ptr %14, align 8, !tbaa !137
  %73 = call i32 @half2float(i16 noundef zeroext %71, ptr noundef %72)
  %74 = call nsz float @av_int2float(i32 noundef %73)
  %75 = fmul nsz float 6.553500e+04, %74
  %76 = call nsz float @av_clipf_c(float noundef %75, float noundef 0.000000e+00, float noundef 6.553500e+04) #10
  %77 = call i64 @llvm.lrint.i64.f32(float %76)
  %78 = trunc i64 %77 to i32
  store i32 %78, ptr %22, align 4, !tbaa !30
  call void @llvm.lifetime.start.p0(i64 4, ptr %23) #9
  %79 = load i32, ptr %10, align 4, !tbaa !30
  %80 = icmp ne i32 %79, 0
  br i1 %80, label %81, label %91

81:                                               ; preds = %69
  %82 = load ptr, ptr %11, align 8, !tbaa !43
  %83 = load i32, ptr %21, align 4, !tbaa !30
  %84 = mul nsw i32 %83, 4
  %85 = add nsw i32 %84, 1
  %86 = sext i32 %85 to i64
  %87 = getelementptr inbounds i16, ptr %82, i64 %86
  %88 = load i16, ptr %87, align 1, !tbaa !36
  %89 = call zeroext i16 @av_bswap16(i16 noundef zeroext %88) #10
  %90 = zext i16 %89 to i32
  br label %100

91:                                               ; preds = %69
  %92 = load ptr, ptr %11, align 8, !tbaa !43
  %93 = load i32, ptr %21, align 4, !tbaa !30
  %94 = mul nsw i32 %93, 4
  %95 = add nsw i32 %94, 1
  %96 = sext i32 %95 to i64
  %97 = getelementptr inbounds i16, ptr %92, i64 %96
  %98 = load i16, ptr %97, align 1, !tbaa !36
  %99 = zext i16 %98 to i32
  br label %100

100:                                              ; preds = %91, %81
  %101 = phi i32 [ %90, %81 ], [ %99, %91 ]
  %102 = trunc i32 %101 to i16
  %103 = load ptr, ptr %14, align 8, !tbaa !137
  %104 = call i32 @half2float(i16 noundef zeroext %102, ptr noundef %103)
  %105 = call nsz float @av_int2float(i32 noundef %104)
  %106 = fmul nsz float 6.553500e+04, %105
  %107 = call nsz float @av_clipf_c(float noundef %106, float noundef 0.000000e+00, float noundef 6.553500e+04) #10
  %108 = call i64 @llvm.lrint.i64.f32(float %107)
  %109 = trunc i64 %108 to i32
  store i32 %109, ptr %23, align 4, !tbaa !30
  call void @llvm.lifetime.start.p0(i64 4, ptr %24) #9
  %110 = load i32, ptr %10, align 4, !tbaa !30
  %111 = icmp ne i32 %110, 0
  br i1 %111, label %112, label %122

112:                                              ; preds = %100
  %113 = load ptr, ptr %11, align 8, !tbaa !43
  %114 = load i32, ptr %21, align 4, !tbaa !30
  %115 = mul nsw i32 %114, 4
  %116 = add nsw i32 %115, 2
  %117 = sext i32 %116 to i64
  %118 = getelementptr inbounds i16, ptr %113, i64 %117
  %119 = load i16, ptr %118, align 1, !tbaa !36
  %120 = call zeroext i16 @av_bswap16(i16 noundef zeroext %119) #10
  %121 = zext i16 %120 to i32
  br label %131

122:                                              ; preds = %100
  %123 = load ptr, ptr %11, align 8, !tbaa !43
  %124 = load i32, ptr %21, align 4, !tbaa !30
  %125 = mul nsw i32 %124, 4
  %126 = add nsw i32 %125, 2
  %127 = sext i32 %126 to i64
  %128 = getelementptr inbounds i16, ptr %123, i64 %127
  %129 = load i16, ptr %128, align 1, !tbaa !36
  %130 = zext i16 %129 to i32
  br label %131

131:                                              ; preds = %122, %112
  %132 = phi i32 [ %121, %112 ], [ %130, %122 ]
  %133 = trunc i32 %132 to i16
  %134 = load ptr, ptr %14, align 8, !tbaa !137
  %135 = call i32 @half2float(i16 noundef zeroext %133, ptr noundef %134)
  %136 = call nsz float @av_int2float(i32 noundef %135)
  %137 = fmul nsz float 6.553500e+04, %136
  %138 = call nsz float @av_clipf_c(float noundef %137, float noundef 0.000000e+00, float noundef 6.553500e+04) #10
  %139 = call i64 @llvm.lrint.i64.f32(float %138)
  %140 = trunc i64 %139 to i32
  store i32 %140, ptr %24, align 4, !tbaa !30
  %141 = load i32, ptr %15, align 4, !tbaa !30
  %142 = load i32, ptr %22, align 4, !tbaa !30
  %143 = mul nsw i32 %141, %142
  %144 = load i32, ptr %16, align 4, !tbaa !30
  %145 = load i32, ptr %23, align 4, !tbaa !30
  %146 = mul nsw i32 %144, %145
  %147 = add nsw i32 %143, %146
  %148 = load i32, ptr %17, align 4, !tbaa !30
  %149 = load i32, ptr %24, align 4, !tbaa !30
  %150 = mul nsw i32 %148, %149
  %151 = add nsw i32 %147, %150
  %152 = add nsw i32 %151, 1073758208
  %153 = ashr i32 %152, 15
  %154 = trunc i32 %153 to i16
  %155 = load ptr, ptr %8, align 8, !tbaa !43
  %156 = load i32, ptr %21, align 4, !tbaa !30
  %157 = sext i32 %156 to i64
  %158 = getelementptr inbounds i16, ptr %155, i64 %157
  store i16 %154, ptr %158, align 2, !tbaa !44
  %159 = load i32, ptr %18, align 4, !tbaa !30
  %160 = load i32, ptr %22, align 4, !tbaa !30
  %161 = mul nsw i32 %159, %160
  %162 = load i32, ptr %19, align 4, !tbaa !30
  %163 = load i32, ptr %23, align 4, !tbaa !30
  %164 = mul nsw i32 %162, %163
  %165 = add nsw i32 %161, %164
  %166 = load i32, ptr %20, align 4, !tbaa !30
  %167 = load i32, ptr %24, align 4, !tbaa !30
  %168 = mul nsw i32 %166, %167
  %169 = add nsw i32 %165, %168
  %170 = add nsw i32 %169, 1073758208
  %171 = ashr i32 %170, 15
  %172 = trunc i32 %171 to i16
  %173 = load ptr, ptr %9, align 8, !tbaa !43
  %174 = load i32, ptr %21, align 4, !tbaa !30
  %175 = sext i32 %174 to i64
  %176 = getelementptr inbounds i16, ptr %173, i64 %175
  store i16 %172, ptr %176, align 2, !tbaa !44
  call void @llvm.lifetime.end.p0(i64 4, ptr %24) #9
  call void @llvm.lifetime.end.p0(i64 4, ptr %23) #9
  call void @llvm.lifetime.end.p0(i64 4, ptr %22) #9
  br label %177

177:                                              ; preds = %131
  %178 = load i32, ptr %21, align 4, !tbaa !30
  %179 = add nsw i32 %178, 1
  store i32 %179, ptr %21, align 4, !tbaa !30
  br label %43, !llvm.loop !150

180:                                              ; preds = %43
  call void @llvm.lifetime.end.p0(i64 4, ptr %21) #9
  call void @llvm.lifetime.end.p0(i64 4, ptr %20) #9
  call void @llvm.lifetime.end.p0(i64 4, ptr %19) #9
  call void @llvm.lifetime.end.p0(i64 4, ptr %18) #9
  call void @llvm.lifetime.end.p0(i64 4, ptr %17) #9
  call void @llvm.lifetime.end.p0(i64 4, ptr %16) #9
  call void @llvm.lifetime.end.p0(i64 4, ptr %15) #9
  ret void
}

; Function Attrs: nounwind uwtable
define internal void @rgbaf16beToUV_c(ptr noundef %0, ptr noundef %1, ptr noundef %2, ptr noundef %3, ptr noundef %4, i32 noundef %5, ptr noundef %6, ptr noundef %7) #2 {
  %9 = alloca ptr, align 8
  %10 = alloca ptr, align 8
  %11 = alloca ptr, align 8
  %12 = alloca ptr, align 8
  %13 = alloca ptr, align 8
  %14 = alloca i32, align 4
  %15 = alloca ptr, align 8
  %16 = alloca ptr, align 8
  %17 = alloca ptr, align 8
  %18 = alloca ptr, align 8
  %19 = alloca ptr, align 8
  %20 = alloca ptr, align 8
  store ptr %0, ptr %9, align 8, !tbaa !34
  store ptr %1, ptr %10, align 8, !tbaa !34
  store ptr %2, ptr %11, align 8, !tbaa !34
  store ptr %3, ptr %12, align 8, !tbaa !34
  store ptr %4, ptr %13, align 8, !tbaa !34
  store i32 %5, ptr %14, align 4, !tbaa !30
  store ptr %6, ptr %15, align 8, !tbaa !35
  store ptr %7, ptr %16, align 8, !tbaa !31
  call void @llvm.lifetime.start.p0(i64 8, ptr %17) #9
  %21 = load ptr, ptr %12, align 8, !tbaa !34
  store ptr %21, ptr %17, align 8, !tbaa !43
  call void @llvm.lifetime.start.p0(i64 8, ptr %18) #9
  %22 = load ptr, ptr %9, align 8, !tbaa !34
  store ptr %22, ptr %18, align 8, !tbaa !43
  call void @llvm.lifetime.start.p0(i64 8, ptr %19) #9
  %23 = load ptr, ptr %10, align 8, !tbaa !34
  store ptr %23, ptr %19, align 8, !tbaa !43
  call void @llvm.lifetime.start.p0(i64 8, ptr %20) #9
  %24 = load ptr, ptr %15, align 8, !tbaa !35
  store ptr %24, ptr %20, align 8, !tbaa !35
  %25 = load ptr, ptr %18, align 8, !tbaa !43
  %26 = load ptr, ptr %19, align 8, !tbaa !43
  %27 = load ptr, ptr %17, align 8, !tbaa !43
  %28 = load i32, ptr %14, align 4, !tbaa !30
  %29 = load ptr, ptr %20, align 8, !tbaa !35
  %30 = load ptr, ptr %16, align 8, !tbaa !31
  call void @rgbaf16ToUV_endian(ptr noundef %25, ptr noundef %26, i32 noundef 1, ptr noundef %27, i32 noundef %28, ptr noundef %29, ptr noundef %30)
  call void @llvm.lifetime.end.p0(i64 8, ptr %20) #9
  call void @llvm.lifetime.end.p0(i64 8, ptr %19) #9
  call void @llvm.lifetime.end.p0(i64 8, ptr %18) #9
  call void @llvm.lifetime.end.p0(i64 8, ptr %17) #9
  ret void
}