; Function Attrs: nofree norecurse nosync nounwind memory(argmem: readwrite) uwtable
define internal void @rgbaf16beToUV_c(ptr noundef writeonly captures(none) %0, ptr noundef writeonly captures(none) %1, ptr readnone captures(none) %2, ptr noundef readonly captures(none) %3, ptr readnone captures(none) %4, i32 noundef %5, ptr noundef readonly captures(none) %6, ptr noundef readonly captures(none) %7) #1 {
  %9 = getelementptr inbounds nuw i8, ptr %6, i64 12
  %10 = load i32, ptr %9, align 4, !tbaa !42
  %11 = getelementptr inbounds nuw i8, ptr %6, i64 16
  %12 = load i32, ptr %11, align 4, !tbaa !42
  %13 = getelementptr inbounds nuw i8, ptr %6, i64 20
  %14 = load i32, ptr %13, align 4, !tbaa !42
  %15 = getelementptr inbounds nuw i8, ptr %6, i64 24
  %16 = load i32, ptr %15, align 4, !tbaa !42
  %17 = getelementptr inbounds nuw i8, ptr %6, i64 28
  %18 = load i32, ptr %17, align 4, !tbaa !42
  %19 = getelementptr inbounds nuw i8, ptr %6, i64 32
  %20 = load i32, ptr %19, align 4, !tbaa !42
  %21 = icmp sgt i32 %5, 0
  br i1 %21, label %.lr.ph, label %rgbaf16ToUV_endian.exit

.lr.ph:                                           ; preds = %8
  %22 = getelementptr inbounds nuw i8, ptr %7, i64 12544
  %23 = getelementptr inbounds nuw i8, ptr %7, i64 12288
  %wide.trip.count = zext nneg i32 %5 to i64
  br label %24

24:                                               ; preds = %.lr.ph, %24
  %indvars.iv = phi i64 [ 0, %.lr.ph ], [ %indvars.iv.next, %24 ]
  %.idx = shl nsw i64 %indvars.iv, 3
  %25 = getelementptr inbounds nuw i8, ptr %3, i64 %.idx
  %26 = load i16, ptr %25, align 1, !tbaa !34
  %27 = tail call i16 @llvm.bswap.i16(i16 %26)
  %28 = zext i16 %27 to i32
  %29 = lshr i32 %28, 10
  %30 = zext nneg i32 %29 to i64
  %31 = getelementptr inbounds nuw [64 x i16], ptr %22, i64 0, i64 %30
  %32 = load i16, ptr %31, align 2, !tbaa !43
  %33 = zext i16 %32 to i32
  %34 = and i32 %28, 1023
  %35 = add nuw nsw i32 %34, %33
  %36 = zext nneg i32 %35 to i64
  %37 = getelementptr inbounds nuw [3072 x i32], ptr %7, i64 0, i64 %36
  %38 = load i32, ptr %37, align 4, !tbaa !42
  %39 = getelementptr inbounds nuw [64 x i32], ptr %23, i64 0, i64 %30
  %40 = load i32, ptr %39, align 4, !tbaa !42
  %41 = add i32 %40, %38
  %42 = bitcast i32 %41 to float
  %43 = fmul nsz float %42, 6.553500e+04
  %44 = fcmp nsz ogt float %43, 0.000000e+00
  %45 = select nsz i1 %44, float %43, float 0.000000e+00
  %46 = fcmp nsz ogt float %45, 6.553500e+04
  %..i45.i = select nsz i1 %46, float 6.553500e+04, float %45
  %47 = tail call i64 @llvm.lrint.i64.f32(float %..i45.i)
  %48 = trunc i64 %47 to i32
  %49 = getelementptr inbounds nuw i8, ptr %25, i64 2
  %50 = load i16, ptr %49, align 1, !tbaa !34
  %51 = tail call i16 @llvm.bswap.i16(i16 %50)
  %52 = zext i16 %51 to i32
  %53 = lshr i32 %52, 10
  %54 = zext nneg i32 %53 to i64
  %55 = getelementptr inbounds nuw [64 x i16], ptr %22, i64 0, i64 %54
  %56 = load i16, ptr %55, align 2, !tbaa !43
  %57 = zext i16 %56 to i32
  %58 = and i32 %52, 1023
  %59 = add nuw nsw i32 %58, %57
  %60 = zext nneg i32 %59 to i64
  %61 = getelementptr inbounds nuw [3072 x i32], ptr %7, i64 0, i64 %60
  %62 = load i32, ptr %61, align 4, !tbaa !42
  %63 = getelementptr inbounds nuw [64 x i32], ptr %23, i64 0, i64 %54
  %64 = load i32, ptr %63, align 4, !tbaa !42
  %65 = add i32 %64, %62
  %66 = bitcast i32 %65 to float
  %67 = fmul nsz float %66, 6.553500e+04
  %68 = fcmp nsz ogt float %67, 0.000000e+00
  %69 = select nsz i1 %68, float %67, float 0.000000e+00
  %70 = fcmp nsz ogt float %69, 6.553500e+04
  %..i44.i = select nsz i1 %70, float 6.553500e+04, float %69
  %71 = tail call i64 @llvm.lrint.i64.f32(float %..i44.i)
  %72 = trunc i64 %71 to i32
  %73 = getelementptr inbounds nuw i8, ptr %25, i64 4
  %74 = load i16, ptr %73, align 1, !tbaa !34
  %75 = tail call i16 @llvm.bswap.i16(i16 %74)
  %76 = zext i16 %75 to i32
  %77 = lshr i32 %76, 10
  %78 = zext nneg i32 %77 to i64
  %79 = getelementptr inbounds nuw [64 x i16], ptr %22, i64 0, i64 %78
  %80 = load i16, ptr %79, align 2, !tbaa !43
  %81 = zext i16 %80 to i32
  %82 = and i32 %76, 1023
  %83 = add nuw nsw i32 %82, %81
  %84 = zext nneg i32 %83 to i64
  %85 = getelementptr inbounds nuw [3072 x i32], ptr %7, i64 0, i64 %84
  %86 = load i32, ptr %85, align 4, !tbaa !42
  %87 = getelementptr inbounds nuw [64 x i32], ptr %23, i64 0, i64 %78
  %88 = load i32, ptr %87, align 4, !tbaa !42
  %89 = add i32 %88, %86
  %90 = bitcast i32 %89 to float
  %91 = fmul nsz float %90, 6.553500e+04
  %92 = fcmp nsz ogt float %91, 0.000000e+00
  %93 = select nsz i1 %92, float %91, float 0.000000e+00
  %94 = fcmp nsz ogt float %93, 6.553500e+04
  %..i.i = select nsz i1 %94, float 6.553500e+04, float %93
  %95 = tail call i64 @llvm.lrint.i64.f32(float %..i.i)
  %96 = trunc i64 %95 to i32
  %97 = mul nsw i32 %10, %48
  %98 = mul nsw i32 %12, %72
  %99 = mul nsw i32 %14, %96
  %100 = add i32 %97, 1073758208
  %101 = add i32 %100, %98
  %102 = add i32 %101, %99
  %103 = lshr i32 %102, 15
  %104 = trunc i32 %103 to i16
  %105 = getelementptr inbounds nuw i16, ptr %0, i64 %indvars.iv
  store i16 %104, ptr %105, align 2, !tbaa !43
  %106 = mul nsw i32 %16, %48
  %107 = mul nsw i32 %18, %72
  %108 = mul nsw i32 %20, %96
  %109 = add i32 %106, 1073758208
  %110 = add i32 %109, %107
  %111 = add i32 %110, %108
  %112 = lshr i32 %111, 15
  %113 = trunc i32 %112 to i16
  %114 = getelementptr inbounds nuw i16, ptr %1, i64 %indvars.iv
  store i16 %113, ptr %114, align 2, !tbaa !43
  %indvars.iv.next = add nuw nsw i64 %indvars.iv, 1
  %exitcond.not = icmp eq i64 %indvars.iv.next, %wide.trip.count
  br i1 %exitcond.not, label %rgbaf16ToUV_endian.exit, label %24, !llvm.loop !89

rgbaf16ToUV_endian.exit:                          ; preds = %24, %8
  ret void
}